target datalayout = "e-m:e-p270:32:32-p271:32:32-p272:64:64-i64:64-i128:128-f80:128-n8:16:32:64-S128"
target triple = "x86_64-pc-linux-gnu"

%struct.mi_stats_s = type { %struct.mi_stat_count_s, %struct.mi_stat_count_s, %struct.mi_stat_count_s, %struct.mi_stat_count_s, %struct.mi_stat_count_s, %struct.mi_stat_count_s, %struct.mi_stat_count_s, %struct.mi_stat_count_s, %struct.mi_stat_count_s, %struct.mi_stat_count_s, %struct.mi_stat_count_s, %struct.mi_stat_count_s, %struct.mi_stat_count_s, %struct.mi_stat_count_s, %struct.mi_stat_count_s, %struct.mi_stat_counter_s, %struct.mi_stat_counter_s, %struct.mi_stat_counter_s, %struct.mi_stat_counter_s, %struct.mi_stat_counter_s, %struct.mi_stat_counter_s, %struct.mi_stat_counter_s, %struct.mi_stat_counter_s, %struct.mi_stat_counter_s, %struct.mi_stat_counter_s, %struct.mi_stat_counter_s, %struct.mi_stat_counter_s, %struct.mi_stat_counter_s, %struct.mi_stat_counter_s }
%struct.mi_stat_count_s = type { i64, i64, i64, i64 }
%struct.mi_stat_counter_s = type { i64, i64 }
%struct.mi_commit_mask_s = type { [8 x i64] }
%struct.mi_segment_s = type { %struct.mi_memid_s, i8, i8, i64, ptr, i64, %struct.mi_commit_mask_s, %struct.mi_commit_mask_s, ptr, i8, i8, i64, i64, i64, i64, ptr, ptr, i64, i64, i32, i64, i64, [513 x %struct.mi_page_s] }
%struct.mi_memid_s = type { %union.anon, i8, i8, i8, i32 }
%union.anon = type { %struct.mi_memid_os_info }
%struct.mi_memid_os_info = type { ptr, i64 }
%struct.mi_page_s = type { i32, i32, i8, i16, i16, %union.mi_page_flags_s, i8, ptr, ptr, i16, i8, i8, i64, ptr, i64, i64, ptr, ptr, [1 x ptr] }
%union.mi_page_flags_s = type { i8 }
%struct.mi_segments_tld_s = type { [36 x %struct.mi_span_queue_s], i64, i64, i64, i64, i64, ptr, ptr }
%struct.mi_span_queue_s = type { ptr, ptr, i64 }
%struct.mi_arena_field_cursor_s = type { i64, i64, i64, i64, ptr, i8, i8 }
%struct.mi_subproc_s = type { i64, i64, %union.pthread_mutex_t, %union.pthread_mutex_t, ptr, ptr, %struct.mi_memid_s }
%union.pthread_mutex_t = type { %struct.__pthread_mutex_s }
%struct.__pthread_mutex_s = type { i32, i32, i32, i32, i32, i16, i16, %struct.__pthread_internal_list }
%struct.__pthread_internal_list = type { ptr, ptr }

; Function Attrs: inlinehint nounwind uwtable
define internal ptr @mi_page_thread_free(ptr noundef %0) #2 {
  %2 = alloca ptr, align 8
  %3 = alloca i64, align 8
  store ptr %0, ptr %2, align 8, !tbaa !21
  %4 = load ptr, ptr %2, align 8, !tbaa !21
  %5 = getelementptr inbounds nuw %struct.mi_page_s, ptr %4, i32 0, i32 14
  %6 = load atomic i64, ptr %5 monotonic, align 8
  store i64 %6, ptr %3, align 8
  %7 = load i64, ptr %3, align 8, !tbaa !8
  %8 = and i64 %7, -4
  %9 = inttoptr i64 %8 to ptr
  ret ptr %9
}

; Function Attrs: nounwind uwtable
define internal ptr @mi_segment_slices_end(ptr noundef %0) #0 {
  %2 = alloca ptr, align 8
  store ptr %0, ptr %2, align 8, !tbaa !19
  %3 = load ptr, ptr %2, align 8, !tbaa !19
  %4 = getelementptr inbounds nuw %struct.mi_segment_s, ptr %3, i32 0, i32 22
  %5 = load ptr, ptr %2, align 8, !tbaa !19
  %6 = getelementptr inbounds nuw %struct.mi_segment_s, ptr %5, i32 0, i32 20
  %7 = load i64, ptr %6, align 8, !tbaa !114
  %8 = getelementptr inbounds nuw [513 x %struct.mi_page_s], ptr %4, i64 0, i64 %7
  ret ptr %8
}

; Function Attrs: inlinehint nounwind uwtable
define internal zeroext i1 @mi_page_has_any_available(ptr noundef %0) #2 {
  %2 = alloca ptr, align 8
  store ptr %0, ptr %2, align 8, !tbaa !21
  %3 = load ptr, ptr %2, align 8, !tbaa !21
  %4 = getelementptr inbounds nuw %struct.mi_page_s, ptr %3, i32 0, i32 9
  %5 = load i16, ptr %4, align 8, !tbaa !125
  %6 = zext i16 %5 to i32
  %7 = load ptr, ptr %2, align 8, !tbaa !21
  %8 = getelementptr inbounds nuw %struct.mi_page_s, ptr %7, i32 0, i32 4
  %9 = load i16, ptr %8, align 4, !tbaa !126
  %10 = zext i16 %9 to i32
  %11 = icmp slt i32 %6, %10
  br i1 %11, label %16, label %12

12:                                               ; preds = %1
  %13 = load ptr, ptr %2, align 8, !tbaa !21
  %14 = call ptr @mi_page_thread_free(ptr noundef %13) #9
  %15 = icmp ne ptr %14, null
  br label %16

16:                                               ; preds = %12, %1
  %17 = phi i1 [ true, %1 ], [ %15, %12 ]
  ret i1 %17
}

; Function Attrs: inlinehint nounwind uwtable
define internal i64 @mi_page_block_size(ptr noundef %0) #2 {
  %2 = alloca ptr, align 8
  store ptr %0, ptr %2, align 8, !tbaa !21
  %3 = load ptr, ptr %2, align 8, !tbaa !21
  %4 = getelementptr inbounds nuw %struct.mi_page_s, ptr %3, i32 0, i32 12
  %5 = load i64, ptr %4, align 8, !tbaa !30
  ret i64 %5
}

; Function Attrs: inlinehint nounwind uwtable
define internal zeroext i1 @mi_page_all_free(ptr noundef %0) #2 {
  %2 = alloca ptr, align 8
  store ptr %0, ptr %2, align 8, !tbaa !21
  %3 = load ptr, ptr %2, align 8, !tbaa !21
  %4 = getelementptr inbounds nuw %struct.mi_page_s, ptr %3, i32 0, i32 9
  %5 = load i16, ptr %4, align 8, !tbaa !125
  %6 = zext i16 %5 to i32
  %7 = icmp eq i32 %6, 0
  ret i1 %7
}

; Function Attrs: inlinehint nounwind uwtable
define internal ptr @mi_slice_to_page(ptr noundef %0) #2 {
  %2 = alloca ptr, align 8
  store ptr %0, ptr %2, align 8, !tbaa !21
  %3 = load ptr, ptr %2, align 8, !tbaa !21
  ret ptr %3
}

; Function Attrs: nounwind uwtable
define internal zeroext i1 @mi_slice_is_used(ptr noundef %0) #0 {
  %2 = alloca ptr, align 8
  store ptr %0, ptr %2, align 8, !tbaa !21
  %3 = load ptr, ptr %2, align 8, !tbaa !21
  %4 = getelementptr inbounds nuw %struct.mi_page_s, ptr %3, i32 0, i32 12
  %5 = load i64, ptr %4, align 8, !tbaa !30
  %6 = icmp ugt i64 %5, 0
  ret i1 %6
}

; Function Attrs: nounwind uwtable
define internal ptr @mi_slices_start_iterate(ptr noundef %0, ptr noundef %1) #0 {
  %3 = alloca ptr, align 8
  %4 = alloca ptr, align 8
  %5 = alloca ptr, align 8
  store ptr %0, ptr %3, align 8, !tbaa !19
  store ptr %1, ptr %4, align 8, !tbaa !97
  call void @llvm.lifetime.start.p0(i64 8, ptr %5) #8
  %6 = load ptr, ptr %3, align 8, !tbaa !19
  %7 = getelementptr inbounds nuw %struct.mi_segment_s, ptr %6, i32 0, i32 22
  %8 = getelementptr inbounds [513 x %struct.mi_page_s], ptr %7, i64 0, i64 0
  store ptr %8, ptr %5, align 8, !tbaa !21
  %9 = load ptr, ptr %3, align 8, !tbaa !19
  %10 = call ptr @mi_segment_slices_end(ptr noundef %9) #9
  %11 = load ptr, ptr %4, align 8, !tbaa !97
  store ptr %10, ptr %11, align 8, !tbaa !21
  %12 = load ptr, ptr %5, align 8, !tbaa !21
  %13 = load ptr, ptr %5, align 8, !tbaa !21
  %14 = getelementptr inbounds nuw %struct.mi_page_s, ptr %13, i32 0, i32 0
  %15 = load i32, ptr %14, align 8, !tbaa !25
  %16 = zext i32 %15 to i64
  %17 = getelementptr inbounds nuw %struct.mi_page_s, ptr %12, i64 %16
  store ptr %17, ptr %5, align 8, !tbaa !21
  %18 = load ptr, ptr %5, align 8, !tbaa !21
  call void @llvm.lifetime.end.p0(i64 8, ptr %5) #8
  ret ptr %18
}

; Function Attrs: nounwind uwtable
define internal zeroext i1 @mi_segment_check_free(ptr noundef %0, i64 noundef %1, i64 noundef %2, ptr noundef %3) #0 {
  %5 = alloca ptr, align 8
  %6 = alloca i64, align 8
  %7 = alloca i64, align 8
  %8 = alloca ptr, align 8
  %9 = alloca i8, align 1
  %10 = alloca ptr, align 8
  %11 = alloca ptr, align 8
  %12 = alloca ptr, align 8
  store ptr %0, ptr %5, align 8, !tbaa !19
  store i64 %1, ptr %6, align 8, !tbaa !8
  store i64 %2, ptr %7, align 8, !tbaa !8
  store ptr %3, ptr %8, align 8, !tbaa !44
  call void @llvm.lifetime.start.p0(i64 1, ptr %9) #8
  store i8 0, ptr %9, align 1, !tbaa !31
  call void @llvm.lifetime.start.p0(i64 8, ptr %10) #8
  call void @llvm.lifetime.start.p0(i64 8, ptr %11) #8
  %13 = load ptr, ptr %5, align 8, !tbaa !19
  %14 = call ptr @mi_slices_start_iterate(ptr noundef %13, ptr noundef %10) #9
  store ptr %14, ptr %11, align 8, !tbaa !21
  br label %15

15:                                               ; preds = %68, %4
  %16 = load ptr, ptr %11, align 8, !tbaa !21
  %17 = load ptr, ptr %10, align 8, !tbaa !21
  %18 = icmp ult ptr %16, %17
  br i1 %18, label %19, label %75

19:                                               ; preds = %15
  %20 = load ptr, ptr %11, align 8, !tbaa !21
  %21 = call zeroext i1 @mi_slice_is_used(ptr noundef %20) #9
  br i1 %21, label %22, label %59

22:                                               ; preds = %19
  call void @llvm.lifetime.start.p0(i64 8, ptr %12) #8
  %23 = load ptr, ptr %11, align 8, !tbaa !21
  %24 = call ptr @mi_slice_to_page(ptr noundef %23) #9
  store ptr %24, ptr %12, align 8, !tbaa !21
  %25 = load ptr, ptr %12, align 8, !tbaa !21
  call void @_mi_page_free_collect(ptr noundef %25, i1 noundef zeroext false) #9
  %26 = load ptr, ptr %12, align 8, !tbaa !21
  %27 = call zeroext i1 @mi_page_all_free(ptr noundef %26) #9
  br i1 %27, label %28, label %48

28:                                               ; preds = %22
  %29 = load ptr, ptr %8, align 8, !tbaa !44
  %30 = getelementptr inbounds nuw %struct.mi_segments_tld_s, ptr %29, i32 0, i32 7
  %31 = load ptr, ptr %30, align 8, !tbaa !49
  %32 = getelementptr inbounds nuw %struct.mi_stats_s, ptr %31, i32 0, i32 8
  call void @_mi_stat_decrease(ptr noundef %32, i64 noundef 1) #9
  %33 = load ptr, ptr %5, align 8, !tbaa !19
  %34 = getelementptr inbounds nuw %struct.mi_segment_s, ptr %33, i32 0, i32 11
  %35 = load i64, ptr %34, align 8, !tbaa !47
  %36 = add i64 %35, -1
  store i64 %36, ptr %34, align 8, !tbaa !47
  %37 = load ptr, ptr %12, align 8, !tbaa !21
  %38 = load ptr, ptr %8, align 8, !tbaa !44
  %39 = call ptr @mi_segment_page_clear(ptr noundef %37, ptr noundef %38) #9
  store ptr %39, ptr %11, align 8, !tbaa !21
  %40 = load ptr, ptr %11, align 8, !tbaa !21
  %41 = getelementptr inbounds nuw %struct.mi_page_s, ptr %40, i32 0, i32 0
  %42 = load i32, ptr %41, align 8, !tbaa !25
  %43 = zext i32 %42 to i64
  %44 = load i64, ptr %6, align 8, !tbaa !8
  %45 = icmp uge i64 %43, %44
  br i1 %45, label %46, label %47

46:                                               ; preds = %28
  store i8 1, ptr %9, align 1, !tbaa !31
  br label %47

47:                                               ; preds = %46, %28
  br label %58

48:                                               ; preds = %22
  %49 = load ptr, ptr %12, align 8, !tbaa !21
  %50 = call i64 @mi_page_block_size(ptr noundef %49) #9
  %51 = load i64, ptr %7, align 8, !tbaa !8
  %52 = icmp eq i64 %50, %51
  br i1 %52, label %53, label %57

53:                                               ; preds = %48
  %54 = load ptr, ptr %12, align 8, !tbaa !21
  %55 = call zeroext i1 @mi_page_has_any_available(ptr noundef %54) #9
  br i1 %55, label %56, label %57

56:                                               ; preds = %53
  store i8 1, ptr %9, align 1, !tbaa !31
  br label %57

57:                                               ; preds = %56, %53, %48
  br label %58

58:                                               ; preds = %57, %47
  call void @llvm.lifetime.end.p0(i64 8, ptr %12) #8
  br label %68

59:                                               ; preds = %19
  %60 = load ptr, ptr %11, align 8, !tbaa !21
  %61 = getelementptr inbounds nuw %struct.mi_page_s, ptr %60, i32 0, i32 0
  %62 = load i32, ptr %61, align 8, !tbaa !25
  %63 = zext i32 %62 to i64
  %64 = load i64, ptr %6, align 8, !tbaa !8
  %65 = icmp uge i64 %63, %64
  br i1 %65, label %66, label %67

66:                                               ; preds = %59
  store i8 1, ptr %9, align 1, !tbaa !31
  br label %67

67:                                               ; preds = %66, %59
  br label %68

68:                                               ; preds = %67, %58
  %69 = load ptr, ptr %11, align 8, !tbaa !21
  %70 = load ptr, ptr %11, align 8, !tbaa !21
  %71 = getelementptr inbounds nuw %struct.mi_page_s, ptr %70, i32 0, i32 0
  %72 = load i32, ptr %71, align 8, !tbaa !25
  %73 = zext i32 %72 to i64
  %74 = getelementptr inbounds nuw %struct.mi_page_s, ptr %69, i64 %73
  store ptr %74, ptr %11, align 8, !tbaa !21
  br label %15, !llvm.loop !85

75:                                               ; preds = %15
  %76 = load i8, ptr %9, align 1, !tbaa !31, !range !33, !noundef !34
  %77 = trunc i8 %76 to i1
  call void @llvm.lifetime.end.p0(i64 8, ptr %11) #8
  call void @llvm.lifetime.end.p0(i64 8, ptr %10) #8
  call void @llvm.lifetime.end.p0(i64 1, ptr %9) #8
  ret i1 %77
}

; Function Attrs: nounwind uwtable
define hidden void @_mi_abandoned_collect(ptr noundef %0, i1 noundef zeroext %1, ptr noundef %2) #0 {
  %4 = alloca ptr, align 8
  %5 = alloca i8, align 1
  %6 = alloca ptr, align 8
  %7 = alloca ptr, align 8
  %8 = alloca %struct.mi_arena_field_cursor_s, align 8
  %9 = alloca i64, align 8
  %10 = alloca i64, align 8
  store ptr %0, ptr %4, align 8, !tbaa !63
  %11 = zext i1 %1 to i8
  store i8 %11, ptr %5, align 1, !tbaa !31
  store ptr %2, ptr %6, align 8, !tbaa !44
  call void @llvm.lifetime.start.p0(i64 8, ptr %7) #8
  call void @llvm.lifetime.start.p0(i64 48, ptr %8) #8
  %12 = load ptr, ptr %4, align 8, !tbaa !63
  %13 = load ptr, ptr %6, align 8, !tbaa !44
  %14 = getelementptr inbounds nuw %struct.mi_segments_tld_s, ptr %13, i32 0, i32 6
  %15 = load ptr, ptr %14, align 8, !tbaa !82
  %16 = load i8, ptr %5, align 1, !tbaa !31, !range !33, !noundef !34
  %17 = trunc i8 %16 to i1
  call void @_mi_arena_field_cursor_init(ptr noundef %12, ptr noundef %15, i1 noundef zeroext %17, ptr noundef %8) #9
  call void @llvm.lifetime.start.p0(i64 8, ptr %9) #8
  %18 = load i8, ptr %5, align 1, !tbaa !31, !range !33, !noundef !34
  %19 = trunc i8 %18 to i1
  br i1 %19, label %20, label %27

20:                                               ; preds = %3
  %21 = load ptr, ptr %6, align 8, !tbaa !44
  %22 = getelementptr inbounds nuw %struct.mi_segments_tld_s, ptr %21, i32 0, i32 6
  %23 = load ptr, ptr %22, align 8, !tbaa !82
  %24 = getelementptr inbounds nuw %struct.mi_subproc_s, ptr %23, i32 0, i32 0
  %25 = load atomic i64, ptr %24 monotonic, align 8
  store i64 %25, ptr %10, align 8
  %26 = load i64, ptr %10, align 8, !tbaa !8
  br label %28

27:                                               ; preds = %3
  br label %28

28:                                               ; preds = %27, %20
  %29 = phi i64 [ %26, %20 ], [ 1024, %27 ]
  store i64 %29, ptr %9, align 8, !tbaa !8
  br label %30

30:                                               ; preds = %57, %28
  %31 = load i64, ptr %9, align 8, !tbaa !8
  %32 = add nsw i64 %31, -1
  store i64 %32, ptr %9, align 8, !tbaa !8
  %33 = icmp sgt i64 %31, 0
  br i1 %33, label %34, label %37

34:                                               ; preds = %30
  %35 = call ptr @_mi_arena_segment_clear_abandoned_next(ptr noundef %8) #9
  store ptr %35, ptr %7, align 8, !tbaa !19
  %36 = icmp ne ptr %35, null
  br label %37

37:                                               ; preds = %34, %30
  %38 = phi i1 [ false, %30 ], [ %36, %34 ]
  br i1 %38, label %39, label %58

39:                                               ; preds = %37
  %40 = load ptr, ptr %7, align 8, !tbaa !19
  %41 = load ptr, ptr %6, align 8, !tbaa !44
  %42 = call zeroext i1 @mi_segment_check_free(ptr noundef %40, i64 noundef 0, i64 noundef 0, ptr noundef %41) #9
  %43 = load ptr, ptr %7, align 8, !tbaa !19
  %44 = getelementptr inbounds nuw %struct.mi_segment_s, ptr %43, i32 0, i32 13
  %45 = load i64, ptr %44, align 8, !tbaa !46
  %46 = icmp eq i64 %45, 0
  br i1 %46, label %47, label %52

47:                                               ; preds = %39
  %48 = load ptr, ptr %7, align 8, !tbaa !19
  %49 = load ptr, ptr %4, align 8, !tbaa !63
  %50 = load ptr, ptr %6, align 8, !tbaa !44
  %51 = call ptr @mi_segment_reclaim(ptr noundef %48, ptr noundef %49, i64 noundef 0, ptr noundef null, ptr noundef %50) #9
  br label %57

52:                                               ; preds = %39
  %53 = load ptr, ptr %7, align 8, !tbaa !19
  %54 = load i8, ptr %5, align 1, !tbaa !31, !range !33, !noundef !34
  %55 = trunc i8 %54 to i1
  call void @mi_segment_try_purge(ptr noundef %53, i1 noundef zeroext %55) #9
  %56 = load ptr, ptr %7, align 8, !tbaa !19
  call void @_mi_arena_segment_mark_abandoned(ptr noundef %56) #9
  br label %57

57:                                               ; preds = %52, %47
  br label %30, !llvm.loop !84

58:                                               ; preds = %37
  call void @_mi_arena_field_cursor_done(ptr noundef %8) #9
  call void @llvm.lifetime.end.p0(i64 8, ptr %9) #8
  call void @llvm.lifetime.end.p0(i64 48, ptr %8) #8
  call void @llvm.lifetime.end.p0(i64 8, ptr %7) #8
  ret void
}