; Function Attrs: nounwind uwtable
define hidden void @_mi_abandoned_collect(ptr noundef %0, i1 noundef zeroext %1, ptr noundef %2) local_unnamed_addr #4 {
  %4 = alloca %struct.mi_arena_field_cursor_s, align 8
  call void @llvm.lifetime.start.p0(i64 48, ptr nonnull %4) #12
  %5 = getelementptr inbounds nuw i8, ptr %2, i64 904
  %6 = load ptr, ptr %5, align 8, !tbaa !85
  call void @_mi_arena_field_cursor_init(ptr noundef %0, ptr noundef %6, i1 noundef zeroext %1, ptr noundef nonnull %4) #11
  br i1 %1, label %7, label %.lr.ph

7:                                                ; preds = %3
  %8 = load ptr, ptr %5, align 8, !tbaa !85
  %9 = load atomic i64, ptr %8 monotonic, align 8
  %10 = icmp sgt i64 %9, 0
  br i1 %10, label %.lr.ph, label %.critedge

.lr.ph:                                           ; preds = %3, %7
  %11 = phi i64 [ %9, %7 ], [ 1024, %3 ]
  %12 = getelementptr inbounds nuw i8, ptr %2, i64 912
  br label %13

13:                                               ; preds = %.lr.ph, %55
  %.in = phi i64 [ %11, %.lr.ph ], [ %14, %55 ]
  %14 = add nsw i64 %.in, -1
  %15 = call ptr @_mi_arena_segment_clear_abandoned_next(ptr noundef nonnull %4) #11
  %.not = icmp eq ptr %15, null
  br i1 %.not, label %.critedge, label %16

16:                                               ; preds = %13
  %17 = getelementptr inbounds nuw i8, ptr %15, i64 288
  %18 = getelementptr inbounds nuw i8, ptr %15, i64 272
  %19 = load i64, ptr %18, align 8, !tbaa !46
  %.idx30.i = mul nuw nsw i64 %19, 96
  %20 = getelementptr inbounds nuw i8, ptr %17, i64 %.idx30.i
  %21 = load i32, ptr %17, align 8, !tbaa !22
  %22 = zext i32 %21 to i64
  %23 = icmp ugt i64 %19, %22
  br i1 %23, label %.lr.ph.i, label %mi_segment_check_free.exit

.lr.ph.i:                                         ; preds = %16
  %.idx.i = mul nuw nsw i64 %22, 96
  %24 = getelementptr inbounds nuw i8, ptr %17, i64 %.idx.i
  %25 = getelementptr inbounds nuw i8, ptr %15, i64 200
  br label %26

26:                                               ; preds = %mi_page_has_any_available.exit.thread.i, %.lr.ph.i
  %.01928.i = phi ptr [ %24, %.lr.ph.i ], [ %47, %mi_page_has_any_available.exit.thread.i ]
  %27 = getelementptr i8, ptr %.01928.i, i64 40
  %.019.val.i = load i64, ptr %27, align 8, !tbaa !14
  %.not27.i = icmp eq i64 %.019.val.i, 0
  br i1 %.not27.i, label %mi_page_has_any_available.exit.thread.i, label %28

28:                                               ; preds = %26
  call void @_mi_page_free_collect(ptr noundef nonnull %.01928.i, i1 noundef zeroext false) #11
  %29 = getelementptr i8, ptr %.01928.i, i64 32
  %.val25.i = load i16, ptr %29, align 8, !tbaa !82
  %30 = icmp eq i16 %.val25.i, 0
  br i1 %30, label %31, label %37

31:                                               ; preds = %28
  %32 = load ptr, ptr %12, align 8, !tbaa !40
  %33 = getelementptr inbounds nuw i8, ptr %32, i64 256
  call void @_mi_stat_decrease(ptr noundef nonnull %33, i64 noundef 1) #11
  %34 = load i64, ptr %25, align 8, !tbaa !38
  %35 = add i64 %34, -1
  store i64 %35, ptr %25, align 8, !tbaa !38
  %36 = call fastcc ptr @mi_segment_page_clear(ptr noundef nonnull %.01928.i, ptr noundef %2) #10
  br label %mi_page_has_any_available.exit.thread.i

37:                                               ; preds = %28
  %.val.i = load i64, ptr %27, align 8, !tbaa !14
  %38 = icmp eq i64 %.val.i, 0
  br i1 %38, label %39, label %mi_page_has_any_available.exit.thread.i

39:                                               ; preds = %37
  %40 = getelementptr inbounds nuw i8, ptr %.01928.i, i64 12
  %41 = load i16, ptr %40, align 4, !tbaa !83
  %42 = icmp ult i16 %.val25.i, %41
  br i1 %42, label %mi_page_has_any_available.exit.thread.i, label %mi_page_has_any_available.exit.i

mi_page_has_any_available.exit.i:                 ; preds = %39
  %43 = getelementptr inbounds nuw i8, ptr %.01928.i, i64 56
  %44 = load atomic i64, ptr %43 monotonic, align 8
  br label %mi_page_has_any_available.exit.thread.i

mi_page_has_any_available.exit.thread.i:          ; preds = %mi_page_has_any_available.exit.i, %26, %39, %37, %31
  %.221.i = phi ptr [ %.01928.i, %37 ], [ %36, %31 ], [ %.01928.i, %mi_page_has_any_available.exit.i ], [ %.01928.i, %39 ], [ %.01928.i, %26 ]
  %45 = load i32, ptr %.221.i, align 8, !tbaa !22
  %46 = zext i32 %45 to i64
  %47 = getelementptr inbounds nuw %struct.mi_page_s, ptr %.221.i, i64 %46
  %48 = icmp ult ptr %47, %20
  br i1 %48, label %26, label %mi_segment_check_free.exit, !llvm.loop !87

mi_segment_check_free.exit:                       ; preds = %mi_page_has_any_available.exit.thread.i, %16
  %49 = getelementptr inbounds nuw i8, ptr %15, i64 216
  %50 = load i64, ptr %49, align 8, !tbaa !37
  %51 = icmp eq i64 %50, 0
  br i1 %51, label %52, label %54

52:                                               ; preds = %mi_segment_check_free.exit
  %53 = call fastcc ptr @mi_segment_reclaim(ptr noundef nonnull %15, ptr noundef %0, i64 noundef 0, ptr noundef null, ptr noundef %2) #10
  br label %55

54:                                               ; preds = %mi_segment_check_free.exit
  call fastcc void @mi_segment_try_purge(ptr noundef nonnull %15, i1 noundef zeroext %1) #10
  call void @_mi_arena_segment_mark_abandoned(ptr noundef nonnull %15) #11
  br label %55

55:                                               ; preds = %54, %52
  %56 = icmp sgt i64 %.in, 1
  br i1 %56, label %13, label %.critedge, !llvm.loop !88

.critedge:                                        ; preds = %13, %55, %7
  call void @_mi_arena_field_cursor_done(ptr noundef nonnull %4) #11
  call void @llvm.lifetime.end.p0(i64 48, ptr nonnull %4) #12
  ret void
}